; ModuleID = '30/2703.c'
source_filename = "30/2703.c"
target datalayout = "e-m:e-p270:32:32-p271:32:32-p272:64:64-i64:64-f80:128-n8:16:32:64-S128"
target triple = "x86_64-pc-linux-gnu"

@.str = private unnamed_addr constant [3 x i8] c"%d\00", align 1

; Function Attrs: noinline nounwind uwtable
define dso_local i32 @main() #0 {
  %1 = alloca i32, align 4
  %2 = alloca i32, align 4
  %3 = alloca i32, align 4
  %4 = alloca i32, align 4
  %5 = alloca i32, align 4
  %6 = alloca i32, align 4
  %7 = alloca i32, align 4
  %8 = alloca i32, align 4
  store i32 0, i32* %1, align 4
  store i32 0, i32* %3, align 4
  store i32 0, i32* %4, align 4
  %9 = call i32 (i8*, ...) @__isoc99_scanf(i8* getelementptr inbounds ([3 x i8], [3 x i8]* @.str, i64 0, i64 0), i32* %5)
  store i32 1, i32* %2, align 4
  br label %10

10:                                               ; preds = %41, %0
  %11 = load i32, i32* %2, align 4
  %12 = load i32, i32* %5, align 4
  %13 = icmp sle i32 %11, %12
  br i1 %13, label %14, label %44

14:                                               ; preds = %10
  %15 = load i32, i32* %4, align 4
  %16 = add nsw i32 %15, 1
  store i32 %16, i32* %4, align 4
  %17 = load i32, i32* %4, align 4
  %18 = srem i32 %17, 7
  store i32 %18, i32* %8, align 4
  %19 = load i32, i32* %8, align 4
  %20 = icmp ne i32 %19, 0
  br i1 %20, label %21, label %40

21:                                               ; preds = %14
  %22 = load i32, i32* %4, align 4
  %23 = sdiv i32 %22, 10
  store i32 %23, i32* %6, align 4
  %24 = load i32, i32* %4, align 4
  %25 = load i32, i32* %6, align 4
  %26 = mul nsw i32 10, %25
  %27 = sub nsw i32 %24, %26
  store i32 %27, i32* %7, align 4
  %28 = load i32, i32* %6, align 4
  %29 = icmp ne i32 %28, 7
  br i1 %29, label %30, label %39

30:                                               ; preds = %21
  %31 = load i32, i32* %7, align 4
  %32 = icmp ne i32 %31, 7
  br i1 %32, label %33, label %39

33:                                               ; preds = %30
  %34 = load i32, i32* %2, align 4
  %35 = load i32, i32* %2, align 4
  %36 = mul nsw i32 %34, %35
  %37 = load i32, i32* %3, align 4
  %38 = add nsw i32 %37, %36
  store i32 %38, i32* %3, align 4
  br label %39

39:                                               ; preds = %33, %30, %21
  br label %40

40:                                               ; preds = %39, %14
  br label %41

41:                                               ; preds = %40
  %42 = load i32, i32* %2, align 4
  %43 = add nsw i32 %42, 1
  store i32 %43, i32* %2, align 4
  br label %10

44:                                               ; preds = %10
  %45 = load i32, i32* %3, align 4
  %46 = call i32 (i8*, ...) @printf(i8* getelementptr inbounds ([3 x i8], [3 x i8]* @.str, i64 0, i64 0), i32 %45)
  ret i32 0
}

declare dso_local i32 @__isoc99_scanf(i8*, ...) #1

declare dso_local i32 @printf(i8*, ...) #1


!llvm.module.flags = !{!0}
!llvm.ident = !{!1}

!0 = !{i32 1, !"wchar_size", i32 4}
!1 = !{!"clang version 10.0.0-4ubuntu1 "}
